; Function Attrs: nounwind uwtable
define ptr @Cba_VecLoadFanins(ptr noundef readonly captures(none) %0, ptr noundef captures(none) %1, i32 noundef %2, ptr noundef readonly captures(none) %3, i32 noundef %4, i32 noundef %5, i32 noundef %6) local_unnamed_addr #0 {
  %8 = icmp slt i32 %2, 1
  br i1 %8, label %55, label %9

9:                                                ; preds = %7
  %.not24 = icmp eq i32 %6, 0
  br i1 %.not24, label %15, label %10

10:                                               ; preds = %9
  %11 = sext i32 %4 to i64
  %12 = getelementptr i32, ptr %3, i64 %11
  %13 = getelementptr i8, ptr %12, i64 -4
  %14 = load i32, ptr %13, align 4
  br label %15

15:                                               ; preds = %9, %10
  %16 = phi i32 [ %14, %10 ], [ 0, %9 ]
  %17 = getelementptr inbounds nuw i8, ptr %1, i64 4
  store i32 0, ptr %17, align 4
  %18 = icmp sgt i32 %5, 0
  br i1 %18, label %.lr.ph, label %.loopexit

.lr.ph:                                           ; preds = %15
  %.phi.trans.insert.i = getelementptr inbounds nuw i8, ptr %1, i64 8
  %19 = sext i32 %4 to i64
  %wide.trip.count = zext nneg i32 %5 to i64
  br label %20

20:                                               ; preds = %.lr.ph, %Vec_IntPush.exit
  %indvars.iv = phi i64 [ 0, %.lr.ph ], [ %indvars.iv.next, %Vec_IntPush.exit ]
  %21 = icmp slt i64 %indvars.iv, %19
  br i1 %21, label %22, label %25

22:                                               ; preds = %20
  %23 = getelementptr inbounds nuw i32, ptr %3, i64 %indvars.iv
  %24 = load i32, ptr %23, align 4
  br label %25

25:                                               ; preds = %20, %22
  %26 = phi i32 [ %24, %22 ], [ %16, %20 ]
  %27 = load i32, ptr %17, align 4
  %28 = load i32, ptr %1, align 8
  %29 = icmp eq i32 %27, %28
  br i1 %29, label %30, label %.Vec_IntGrow.exit10_crit_edge.i

.Vec_IntGrow.exit10_crit_edge.i:                  ; preds = %25
  %.pre.i = load ptr, ptr %.phi.trans.insert.i, align 8
  br label %Vec_IntPush.exit

30:                                               ; preds = %25
  %31 = icmp slt i32 %27, 16
  br i1 %31, label %32, label %39

32:                                               ; preds = %30
  %33 = load ptr, ptr %.phi.trans.insert.i, align 8
  %.not9.i.i = icmp eq ptr %33, null
  br i1 %.not9.i.i, label %36, label %34

34:                                               ; preds = %32
  %35 = tail call dereferenceable_or_null(64) ptr @realloc(ptr noundef nonnull %33, i64 noundef 64) #18
  br label %Vec_IntGrow.exit.i

36:                                               ; preds = %32
  %37 = tail call noalias dereferenceable_or_null(64) ptr @malloc(i64 noundef 64) #19
  br label %Vec_IntGrow.exit.i

Vec_IntGrow.exit.i:                               ; preds = %36, %34
  %38 = phi ptr [ %35, %34 ], [ %37, %36 ]
  store ptr %38, ptr %.phi.trans.insert.i, align 8
  store i32 16, ptr %1, align 8
  br label %Vec_IntPush.exit

39:                                               ; preds = %30
  %40 = shl nuw nsw i32 %27, 1
  %41 = load ptr, ptr %.phi.trans.insert.i, align 8
  %.not9.i9.i = icmp eq ptr %41, null
  %42 = zext nneg i32 %40 to i64
  %43 = shl nuw nsw i64 %42, 2
  br i1 %.not9.i9.i, label %46, label %44

44:                                               ; preds = %39
  %45 = tail call ptr @realloc(ptr noundef nonnull %41, i64 noundef %43) #18
  br label %48

46:                                               ; preds = %39
  %47 = tail call noalias ptr @malloc(i64 noundef %43) #19
  br label %48

48:                                               ; preds = %46, %44
  %49 = phi ptr [ %45, %44 ], [ %47, %46 ]
  store ptr %49, ptr %.phi.trans.insert.i, align 8
  store i32 %40, ptr %1, align 8
  br label %Vec_IntPush.exit

Vec_IntPush.exit:                                 ; preds = %.Vec_IntGrow.exit10_crit_edge.i, %Vec_IntGrow.exit.i, %48
  %50 = phi ptr [ %.pre.i, %.Vec_IntGrow.exit10_crit_edge.i ], [ %49, %48 ], [ %38, %Vec_IntGrow.exit.i ]
  %51 = load i32, ptr %17, align 4
  %52 = add nsw i32 %51, 1
  store i32 %52, ptr %17, align 4
  %53 = sext i32 %51 to i64
  %54 = getelementptr inbounds i32, ptr %50, i64 %53
  store i32 %26, ptr %54, align 4
  %indvars.iv.next = add nuw nsw i64 %indvars.iv, 1
  %exitcond.not = icmp eq i64 %indvars.iv.next, %wide.trip.count
  br i1 %exitcond.not, label %.loopexit, label %20, !llvm.loop !14

55:                                               ; preds = %7
  %.not23 = icmp sgt i32 %2, -1
  br i1 %.not23, label %57, label %56

56:                                               ; preds = %55
  tail call void @Cba_BlastConst(ptr noundef %0, ptr noundef %1, i32 noundef %2, i32 noundef %5, i32 noundef %6)
  br label %.loopexit

57:                                               ; preds = %55
  %58 = load i32, ptr %1, align 8
  %.not.i.i = icmp slt i32 %58, %5
  br i1 %.not.i.i, label %59, label %Vec_IntGrow.exit.i25

59:                                               ; preds = %57
  %60 = getelementptr inbounds nuw i8, ptr %1, i64 8
  %61 = load ptr, ptr %60, align 8
  %.not9.i.i26 = icmp eq ptr %61, null
  %62 = sext i32 %5 to i64
  %63 = shl nsw i64 %62, 2
  br i1 %.not9.i.i26, label %66, label %64

64:                                               ; preds = %59
  %65 = tail call ptr @realloc(ptr noundef nonnull %61, i64 noundef %63) #18
  br label %68

66:                                               ; preds = %59
  %67 = tail call noalias ptr @malloc(i64 noundef %63) #19
  br label %68

68:                                               ; preds = %66, %64
  %69 = phi ptr [ %65, %64 ], [ %67, %66 ]
  store ptr %69, ptr %60, align 8
  store i32 %5, ptr %1, align 8
  br label %Vec_IntGrow.exit.i25

Vec_IntGrow.exit.i25:                             ; preds = %68, %57
  %70 = icmp sgt i32 %5, 0
  br i1 %70, label %.lr.ph.i, label %Vec_IntFill.exit

.lr.ph.i:                                         ; preds = %Vec_IntGrow.exit.i25
  %71 = getelementptr inbounds nuw i8, ptr %1, i64 8
  %wide.trip.count.i = zext nneg i32 %5 to i64
  br label %72

72:                                               ; preds = %72, %.lr.ph.i
  %indvars.iv.i = phi i64 [ 0, %.lr.ph.i ], [ %indvars.iv.next.i, %72 ]
  %73 = load ptr, ptr %71, align 8
  %74 = getelementptr inbounds nuw i32, ptr %73, i64 %indvars.iv.i
  store i32 0, ptr %74, align 4
  %indvars.iv.next.i = add nuw nsw i64 %indvars.iv.i, 1
  %exitcond.not.i = icmp eq i64 %indvars.iv.next.i, %wide.trip.count.i
  br i1 %exitcond.not.i, label %Vec_IntFill.exit, label %72, !llvm.loop !4

Vec_IntFill.exit:                                 ; preds = %72, %Vec_IntGrow.exit.i25
  %75 = getelementptr inbounds nuw i8, ptr %1, i64 4
  store i32 %5, ptr %75, align 4
  br label %.loopexit

.loopexit:                                        ; preds = %Vec_IntPush.exit, %15, %56, %Vec_IntFill.exit
  %76 = getelementptr i8, ptr %1, i64 8
  %.val = load ptr, ptr %76, align 8
  ret ptr %.val
}